target datalayout = "e-m:e-p270:32:32-p271:32:32-p272:64:64-i64:64-i128:128-f80:128-n8:16:32:64-S128"
target triple = "x86_64-pc-linux-gnu"

%struct.AVChannelLayout = type { i32, i32, %union.anon, ptr }
%union.anon = type { i64 }
%struct.AACDecContext = type { ptr, ptr, %struct.AACDecDSP, %struct.AACDecProc, ptr, i32, %struct.DynamicRangeControl, [4 x [64 x ptr]], [4 x [64 x ptr]], i32, i32, [8 x i8], %union.anon.0, %union.anon.1, ptr, ptr, ptr, ptr, ptr, ptr, ptr, ptr, ptr, ptr, ptr, ptr, ptr, ptr, ptr, ptr, ptr, ptr, %union.anon.2, i32, [64 x ptr], i32, i32, i32, [2 x %struct.OutputConfiguration], i32, i32, i32, i32, i32, i32, [8 x i8] }
%struct.AACDecDSP = type { ptr, ptr, ptr, ptr, ptr, ptr, ptr, ptr, ptr, ptr, ptr, ptr, ptr, ptr, ptr }
%struct.AACDecProc = type { ptr, ptr, ptr, ptr, ptr, ptr }
%struct.DynamicRangeControl = type { i32, [17 x i32], [17 x i32], [64 x i32], i32, i32, [17 x i32], i32 }
%union.anon.0 = type { [1024 x i32] }
%union.anon.1 = type { [128 x i32] }
%union.anon.2 = type { ptr }
%struct.OutputConfiguration = type { %struct.MPEG4AudioConfig, [256 x [3 x i8]], i32, %struct.AVChannelLayout, i32, %struct.AACUSACConfig }
%struct.MPEG4AudioConfig = type { i32, i32, i32, i32, i32, i32, i32, i32, i32, i32, i32, i32 }
%struct.AACUSACConfig = type { i8, i16, i16, [64 x %struct.AACUsacElemConfig], i32, %struct.anon.6 }
%struct.AACUsacElemConfig = type { i32, i8, i8, %struct.anon, %struct.anon.4, %struct.anon.5 }
%struct.anon = type { i32, i8, %struct.anon.3 }
%struct.anon.3 = type { i8, i8, i8, i8, i8, i8, i8, i8 }
%struct.anon.4 = type { i8, i8, i8, i8, i8, i8, i8, i8, i8 }
%struct.anon.5 = type { i32, i8, i32, i32, ptr }
%struct.anon.6 = type { i8, i8, [64 x %struct.AACUSACLoudnessInfo], i8, i8, [64 x %struct.AACUSACLoudnessInfo] }
%struct.AACUSACLoudnessInfo = type <{ i16, %struct.anon.7, %struct.anon.8, i8, [16 x %struct.anon.9], i8 }>
%struct.anon.7 = type { i16 }
%struct.anon.8 = type { i32 }
%struct.anon.9 = type { i8, i8, i8 }
%struct.SingleChannelElement = type { %struct.IndividualChannelStream, %struct.AACUsacElemData, %struct.TemporalNoiseShaping, [128 x i32], [128 x i32], %union.anon.15, [12 x i8], %union.anon.16, %union.anon.17, %union.anon.18, %union.anon.19, %union.anon.20, %union.anon.21, %union.anon.22 }
%struct.IndividualChannelStream = type { i8, [2 x i32], [2 x i8], i32, i32, [8 x i8], %struct.LongTermPrediction, ptr, i32, i32, i32, i32, i32, i32, [41 x i8], [8 x i8] }
%struct.LongTermPrediction = type { i8, i16, %union.anon.10, [40 x i8] }
%union.anon.10 = type { i32 }
%struct.AACUsacElemData = type { i8, i8, i8, [16 x i8], %struct.anon.11, %struct.anon.12, %struct.anon.13, %struct.AACArithState }
%struct.anon.11 = type { i16, i32 }
%struct.anon.12 = type { i32, i8 }
%struct.anon.13 = type { i8, [8 x [8 x i32]] }
%struct.AACArithState = type { [513 x i8], i32, [4 x i8], i16 }
%struct.TemporalNoiseShaping = type { i32, [8 x i32], [8 x [4 x i32]], [8 x [4 x i32]], [8 x [4 x i32]], %union.anon.14 }
%union.anon.14 = type { [8 x [4 x [20 x i32]]] }
%union.anon.15 = type { [128 x i32] }
%union.anon.16 = type { [1024 x i32] }
%union.anon.17 = type { [1024 x i32] }
%union.anon.18 = type { [1536 x i32] }
%union.anon.19 = type { [2048 x i32] }
%union.anon.20 = type { [3072 x i32] }
%union.anon.21 = type { ptr }
%union.anon.22 = type { ptr }
%struct.ChannelElement = type { i32, i8, [128 x i8], [11 x i8], [2 x %struct.SingleChannelElement], %struct.ChannelCoupling, [8 x i8], %struct.AACUsacStereo }
%struct.ChannelCoupling = type { i32, i32, [8 x i32], [8 x i32], [8 x i32], %union.anon.23 }
%union.anon.23 = type { [16 x [120 x i32]] }
%struct.AACUsacStereo = type { i8, i8, i8, i8, i8, i8, i8, i8, [128 x i8], [8 x i8], %union.anon.24, %union.anon.25, %union.anon.26, %union.anon.27, %union.anon.28, %union.anon.29, %union.anon.30 }
%union.anon.24 = type { [1024 x i32] }
%union.anon.25 = type { [1024 x i32] }
%union.anon.26 = type { [1024 x i32] }
%union.anon.27 = type { [1024 x i32] }
%union.anon.28 = type { [1024 x i32] }
%union.anon.29 = type { [1024 x i32] }
%union.anon.30 = type { [1024 x i32] }
%struct.AVFixedDSPContext = type { ptr, ptr, ptr, ptr, ptr, ptr, ptr }

; Function Attrs: nounwind uwtable
define internal void @apply_mid_side_stereo_fixed(ptr noundef %0, ptr noundef %1) #3 {
  %3 = alloca ptr, align 8
  %4 = alloca ptr, align 8
  %5 = alloca ptr, align 8
  %6 = alloca ptr, align 8
  %7 = alloca ptr, align 8
  %8 = alloca ptr, align 8
  %9 = alloca i32, align 4
  %10 = alloca i32, align 4
  %11 = alloca i32, align 4
  %12 = alloca i32, align 4
  %13 = alloca i32, align 4
  store ptr %0, ptr %3, align 8, !tbaa !29
  store ptr %1, ptr %4, align 8, !tbaa !80
  call void @llvm.lifetime.start.p0(i64 8, ptr %5) #13
  %14 = load ptr, ptr %4, align 8, !tbaa !80
  %15 = getelementptr inbounds nuw %struct.ChannelElement, ptr %14, i32 0, i32 4
  %16 = getelementptr inbounds [2 x %struct.SingleChannelElement], ptr %15, i64 0, i64 0
  %17 = getelementptr inbounds nuw %struct.SingleChannelElement, ptr %16, i32 0, i32 0
  store ptr %17, ptr %5, align 8, !tbaa !68
  call void @llvm.lifetime.start.p0(i64 8, ptr %6) #13
  %18 = load ptr, ptr %4, align 8, !tbaa !80
  %19 = getelementptr inbounds nuw %struct.ChannelElement, ptr %18, i32 0, i32 4
  %20 = getelementptr inbounds [2 x %struct.SingleChannelElement], ptr %19, i64 0, i64 0
  %21 = getelementptr inbounds nuw %struct.SingleChannelElement, ptr %20, i32 0, i32 7
  %22 = getelementptr inbounds [1024 x i32], ptr %21, i64 0, i64 0
  store ptr %22, ptr %6, align 8, !tbaa !70
  call void @llvm.lifetime.start.p0(i64 8, ptr %7) #13
  %23 = load ptr, ptr %4, align 8, !tbaa !80
  %24 = getelementptr inbounds nuw %struct.ChannelElement, ptr %23, i32 0, i32 4
  %25 = getelementptr inbounds [2 x %struct.SingleChannelElement], ptr %24, i64 0, i64 1
  %26 = getelementptr inbounds nuw %struct.SingleChannelElement, ptr %25, i32 0, i32 7
  %27 = getelementptr inbounds [1024 x i32], ptr %26, i64 0, i64 0
  store ptr %27, ptr %7, align 8, !tbaa !70
  call void @llvm.lifetime.start.p0(i64 8, ptr %8) #13
  %28 = load ptr, ptr %5, align 8, !tbaa !68
  %29 = getelementptr inbounds nuw %struct.IndividualChannelStream, ptr %28, i32 0, i32 7
  %30 = load ptr, ptr %29, align 8, !tbaa !82
  store ptr %30, ptr %8, align 8, !tbaa !83
  call void @llvm.lifetime.start.p0(i64 4, ptr %9) #13
  store i32 0, ptr %9, align 4, !tbaa !71
  br label %31

31:                                               ; preds = %173, %2
  %32 = load i32, ptr %9, align 4, !tbaa !71
  %33 = load ptr, ptr %5, align 8, !tbaa !68
  %34 = getelementptr inbounds nuw %struct.IndividualChannelStream, ptr %33, i32 0, i32 3
  %35 = load i32, ptr %34, align 8, !tbaa !72
  %36 = icmp slt i32 %32, %35
  br i1 %36, label %38, label %37

37:                                               ; preds = %31
  store i32 2, ptr %10, align 4
  call void @llvm.lifetime.end.p0(i64 4, ptr %9) #13
  br label %176

38:                                               ; preds = %31
  call void @llvm.lifetime.start.p0(i64 4, ptr %11) #13
  store i32 0, ptr %11, align 4, !tbaa !71
  br label %39

39:                                               ; preds = %147, %38
  %40 = load i32, ptr %11, align 4, !tbaa !71
  %41 = load ptr, ptr %4, align 8, !tbaa !80
  %42 = getelementptr inbounds nuw %struct.ChannelElement, ptr %41, i32 0, i32 1
  %43 = load i8, ptr %42, align 4, !tbaa !84
  %44 = zext i8 %43 to i32
  %45 = icmp slt i32 %40, %44
  br i1 %45, label %47, label %46

46:                                               ; preds = %39
  store i32 5, ptr %10, align 4
  call void @llvm.lifetime.end.p0(i64 4, ptr %11) #13
  br label %150

47:                                               ; preds = %39
  call void @llvm.lifetime.start.p0(i64 4, ptr %12) #13
  %48 = load i32, ptr %9, align 4, !tbaa !71
  %49 = load ptr, ptr %4, align 8, !tbaa !80
  %50 = getelementptr inbounds nuw %struct.ChannelElement, ptr %49, i32 0, i32 1
  %51 = load i8, ptr %50, align 4, !tbaa !84
  %52 = zext i8 %51 to i32
  %53 = mul nsw i32 %48, %52
  %54 = load i32, ptr %11, align 4, !tbaa !71
  %55 = add nsw i32 %53, %54
  store i32 %55, ptr %12, align 4, !tbaa !71
  %56 = load ptr, ptr %4, align 8, !tbaa !80
  %57 = getelementptr inbounds nuw %struct.ChannelElement, ptr %56, i32 0, i32 2
  %58 = load i32, ptr %12, align 4, !tbaa !71
  %59 = sext i32 %58 to i64
  %60 = getelementptr inbounds [128 x i8], ptr %57, i64 0, i64 %59
  %61 = load i8, ptr %60, align 1, !tbaa !40
  %62 = zext i8 %61 to i32
  %63 = icmp ne i32 %62, 0
  br i1 %63, label %64, label %146

64:                                               ; preds = %47
  %65 = load ptr, ptr %4, align 8, !tbaa !80
  %66 = getelementptr inbounds nuw %struct.ChannelElement, ptr %65, i32 0, i32 4
  %67 = getelementptr inbounds [2 x %struct.SingleChannelElement], ptr %66, i64 0, i64 0
  %68 = getelementptr inbounds nuw %struct.SingleChannelElement, ptr %67, i32 0, i32 3
  %69 = load i32, ptr %12, align 4, !tbaa !71
  %70 = sext i32 %69 to i64
  %71 = getelementptr inbounds [128 x i32], ptr %68, i64 0, i64 %70
  %72 = load i32, ptr %71, align 4, !tbaa !71
  %73 = icmp ult i32 %72, 13
  br i1 %73, label %74, label %146

74:                                               ; preds = %64
  %75 = load ptr, ptr %4, align 8, !tbaa !80
  %76 = getelementptr inbounds nuw %struct.ChannelElement, ptr %75, i32 0, i32 4
  %77 = getelementptr inbounds [2 x %struct.SingleChannelElement], ptr %76, i64 0, i64 1
  %78 = getelementptr inbounds nuw %struct.SingleChannelElement, ptr %77, i32 0, i32 3
  %79 = load i32, ptr %12, align 4, !tbaa !71
  %80 = sext i32 %79 to i64
  %81 = getelementptr inbounds [128 x i32], ptr %78, i64 0, i64 %80
  %82 = load i32, ptr %81, align 4, !tbaa !71
  %83 = icmp ult i32 %82, 13
  br i1 %83, label %84, label %146

84:                                               ; preds = %74
  call void @llvm.lifetime.start.p0(i64 4, ptr %13) #13
  store i32 0, ptr %13, align 4, !tbaa !71
  br label %85

85:                                               ; preds = %142, %84
  %86 = load i32, ptr %13, align 4, !tbaa !71
  %87 = load ptr, ptr %5, align 8, !tbaa !68
  %88 = getelementptr inbounds nuw %struct.IndividualChannelStream, ptr %87, i32 0, i32 5
  %89 = load i32, ptr %9, align 4, !tbaa !71
  %90 = sext i32 %89 to i64
  %91 = getelementptr inbounds [8 x i8], ptr %88, i64 0, i64 %90
  %92 = load i8, ptr %91, align 1, !tbaa !40
  %93 = zext i8 %92 to i32
  %94 = icmp slt i32 %86, %93
  br i1 %94, label %96, label %95

95:                                               ; preds = %85
  store i32 8, ptr %10, align 4
  call void @llvm.lifetime.end.p0(i64 4, ptr %13) #13
  br label %145

96:                                               ; preds = %85
  %97 = load ptr, ptr %3, align 8, !tbaa !29
  %98 = getelementptr inbounds nuw %struct.AACDecContext, ptr %97, i32 0, i32 32
  %99 = load ptr, ptr %98, align 16, !tbaa !40
  %100 = getelementptr inbounds nuw %struct.AVFixedDSPContext, ptr %99, i32 0, i32 6
  %101 = load ptr, ptr %100, align 8, !tbaa !88
  %102 = load ptr, ptr %6, align 8, !tbaa !70
  %103 = load i32, ptr %13, align 4, !tbaa !71
  %104 = mul nsw i32 %103, 128
  %105 = sext i32 %104 to i64
  %106 = getelementptr inbounds i32, ptr %102, i64 %105
  %107 = load ptr, ptr %8, align 8, !tbaa !83
  %108 = load i32, ptr %11, align 4, !tbaa !71
  %109 = sext i32 %108 to i64
  %110 = getelementptr inbounds i16, ptr %107, i64 %109
  %111 = load i16, ptr %110, align 2, !tbaa !90
  %112 = zext i16 %111 to i32
  %113 = sext i32 %112 to i64
  %114 = getelementptr inbounds i32, ptr %106, i64 %113
  %115 = load ptr, ptr %7, align 8, !tbaa !70
  %116 = load i32, ptr %13, align 4, !tbaa !71
  %117 = mul nsw i32 %116, 128
  %118 = sext i32 %117 to i64
  %119 = getelementptr inbounds i32, ptr %115, i64 %118
  %120 = load ptr, ptr %8, align 8, !tbaa !83
  %121 = load i32, ptr %11, align 4, !tbaa !71
  %122 = sext i32 %121 to i64
  %123 = getelementptr inbounds i16, ptr %120, i64 %122
  %124 = load i16, ptr %123, align 2, !tbaa !90
  %125 = zext i16 %124 to i32
  %126 = sext i32 %125 to i64
  %127 = getelementptr inbounds i32, ptr %119, i64 %126
  %128 = load ptr, ptr %8, align 8, !tbaa !83
  %129 = load i32, ptr %11, align 4, !tbaa !71
  %130 = add nsw i32 %129, 1
  %131 = sext i32 %130 to i64
  %132 = getelementptr inbounds i16, ptr %128, i64 %131
  %133 = load i16, ptr %132, align 2, !tbaa !90
  %134 = zext i16 %133 to i32
  %135 = load ptr, ptr %8, align 8, !tbaa !83
  %136 = load i32, ptr %11, align 4, !tbaa !71
  %137 = sext i32 %136 to i64
  %138 = getelementptr inbounds i16, ptr %135, i64 %137
  %139 = load i16, ptr %138, align 2, !tbaa !90
  %140 = zext i16 %139 to i32
  %141 = sub nsw i32 %134, %140
  call void %101(ptr noundef %114, ptr noundef %127, i32 noundef %141)
  br label %142

142:                                              ; preds = %96
  %143 = load i32, ptr %13, align 4, !tbaa !71
  %144 = add nsw i32 %143, 1
  store i32 %144, ptr %13, align 4, !tbaa !71
  br label %85, !llvm.loop !91

145:                                              ; preds = %95
  br label %146

146:                                              ; preds = %145, %74, %64, %47
  call void @llvm.lifetime.end.p0(i64 4, ptr %12) #13
  br label %147

147:                                              ; preds = %146
  %148 = load i32, ptr %11, align 4, !tbaa !71
  %149 = add nsw i32 %148, 1
  store i32 %149, ptr %11, align 4, !tbaa !71
  br label %39, !llvm.loop !92

150:                                              ; preds = %46
  %151 = load ptr, ptr %5, align 8, !tbaa !68
  %152 = getelementptr inbounds nuw %struct.IndividualChannelStream, ptr %151, i32 0, i32 5
  %153 = load i32, ptr %9, align 4, !tbaa !71
  %154 = sext i32 %153 to i64
  %155 = getelementptr inbounds [8 x i8], ptr %152, i64 0, i64 %154
  %156 = load i8, ptr %155, align 1, !tbaa !40
  %157 = zext i8 %156 to i32
  %158 = mul nsw i32 %157, 128
  %159 = load ptr, ptr %6, align 8, !tbaa !70
  %160 = sext i32 %158 to i64
  %161 = getelementptr inbounds i32, ptr %159, i64 %160
  store ptr %161, ptr %6, align 8, !tbaa !70
  %162 = load ptr, ptr %5, align 8, !tbaa !68
  %163 = getelementptr inbounds nuw %struct.IndividualChannelStream, ptr %162, i32 0, i32 5
  %164 = load i32, ptr %9, align 4, !tbaa !71
  %165 = sext i32 %164 to i64
  %166 = getelementptr inbounds [8 x i8], ptr %163, i64 0, i64 %165
  %167 = load i8, ptr %166, align 1, !tbaa !40
  %168 = zext i8 %167 to i32
  %169 = mul nsw i32 %168, 128
  %170 = load ptr, ptr %7, align 8, !tbaa !70
  %171 = sext i32 %169 to i64
  %172 = getelementptr inbounds i32, ptr %170, i64 %171
  store ptr %172, ptr %7, align 8, !tbaa !70
  br label %173

173:                                              ; preds = %150
  %174 = load i32, ptr %9, align 4, !tbaa !71
  %175 = add nsw i32 %174, 1
  store i32 %175, ptr %9, align 4, !tbaa !71
  br label %31, !llvm.loop !93

176:                                              ; preds = %37
  call void @llvm.lifetime.end.p0(i64 8, ptr %8) #13
  call void @llvm.lifetime.end.p0(i64 8, ptr %7) #13
  call void @llvm.lifetime.end.p0(i64 8, ptr %6) #13
  call void @llvm.lifetime.end.p0(i64 8, ptr %5) #13
  ret void
}